(dp0
S'Camembert'
p1
(lp2
S'Merlot'
p3
aS'White Wine'
p4
aS'Chenin Blanc'
p5
aS'Pinot Blanc'
p6
aS'Gewurztraminer'
p7
asS'Dubliner'
p8
(lp9
S'Chardonnay'
p10
aS'Cabernet Sauvignon'
p11
asS'Mature Wensleydale'
p12
(lp13
S'Pinot GrisGrigio'
p14
asS'Cotswold'
p15
(lp16
S'Zinfandel'
p17
aS'SyrahShiraz'
p18
asS'Colby'
p19
(lp20
S'Riesling'
p21
ag4
asS'Golden Smoked Rebel'
p22
(lp23
S'Riesling'
p24
ag14
asS'Harlech Truckle'
p25
(lp26
S'Zinfandel'
p27
aS'Red Wine'
p28
asS'Vacherin Fribourgeois'
p29
(lp30
g28
aS'Rhone Red Blends'
p31
aS'Bordeaux Red Blends'
p32
asS'Gruyere'
p33
(lp34
S'Pinot Noir'
p35
aS'Sauvignon Blanc'
p36
asS'Tillamook Smoked Black Pepper White Cheddar'
p37
(lp38
S'Chardonnay'
p39
asS'Cashel Blue'
p40
(lp41
S'Gewurztraminer'
p42
asS'Gorgonzola'
p43
(lp44
S'Merlot'
p45
aS'Port'
p46
aS'Zinfandel'
p47
ag32
aS'Dessert'
p48
asS'Tamie'
p49
(lp50
S'Sangiovese'
p51
aS'Chardonnay'
p52
aS'Merlot'
p53
aS'Gamay'
p54
asS'Herrgardsost'
p55
(lp56
S'Merlot'
p57
asS'Tomme Brulee'
p58
(lp59
S'Malbec'
p60
aS'Cabernet Sauvignon'
p61
asS'Port-Salut'
p62
(lp63
S'Pinot Noir'
p64
asS'Asiago'
p65
(lp66
S'Cabernet Sauvignon'
p67
aS'Tempranillo'
p68
ag18
asS'Bocconcini'
p69
(lp70
S'Sauvignon Blanc'
p71
aS'Merlot'
p72
asS'Jindi Brie'
p73
(lp74
S'Sauvignon Blanc'
p75
asS'Le Roule'
p76
(lp77
g4
aS'Pinot Noir'
p78
asS'Fontina'
p79
(lp80
S'Sangiovese'
p81
asS'Vignotte'
p82
(lp83
g4
aS'Sauvignon Blanc'
p84
asS'Gloucester'
p85
(lp86
g18
asS'Sage Derby'
p87
(lp88
S'Chardonnay'
p89
asS'Mahoe Aged Gouda'
p90
(lp91
S'Cabernet Sauvignon'
p92
asS'Chaource'
p93
(lp94
g84
ag4
aS'Chardonnay'
p95
asS'Parmesan'
p96
(lp97
S'Sangiovese'
p98
ag18
ag84
asS'Chevre'
p99
(lp100
g7
asS'Montasio Mezzano'
p101
(lp102
S'Merlot'
p103
aS'Sauvignon Blanc'
p104
ag14
asS'Lappi'
p105
(lp106
S'Riesling'
p107
asS'Paski Sir'
p108
(lp109
S'Merlot'
p110
asS'Leyden'
p111
(lp112
g18
asS'Cambozola'
p113
(lp114
S'Chardonnay'
p115
asS'Havarti'
p116
(lp117
g68
asS'Cantal'
p118
(lp119
S'Cabernet Sauvignon'
p120
aS'Merlot'
p121
asS'Maasdam'
p122
(lp123
S'Gewurztraminer'
p124
aS'Merlot'
p125
aS'Chardonnay'
p126
aS'Sauvignon Blanc'
p127
aS'Sangiovese'
p128
aS'Zinfandel'
p129
asS'Cream cheese'
p130
(lp131
g48
asS'Idaho Goatster'
p132
(lp133
S'Merlot'
p134
asS'Saint Albray'
p135
(lp136
S'Pinot Noir'
p137
ag128
asS'Edam'
p138
(lp139
S'Riesling'
p140
ag14
ag18
ag4
asS'Beaufort'
p141
(lp142
g4
asS'Saint Paulin'
p143
(lp144
S'Riesling'
p145
ag32
ag54
asS'Shropshire Blue'
p146
(lp147
S'Zinfandel'
p148
aS'Tempranillo'
p149
ag18
asS'Fiore Sardo'
p150
(lp151
S'Muscat'
p152
asS'Gouda'
p153
(lp154
S'Merlot'
p155
aS'Riesling'
p156
aS'Zinfandel'
p157
ag14
ag18
asS'Zamorano'
p158
(lp159
g129
asS'Durrus'
p160
(lp161
g14
ag4
asS'Wigmore'
p162
(lp163
S'Cabernet Sauvignon'
p164
aS'Merlot'
p165
asS'Langres'
p166
(lp167
g28
ag4
asS'Mileens'
p168
(lp169
S'Gewurztraminer'
p170
asS'Provolone'
p171
(lp172
S'Sangiovese'
p173
aS'Sauvignon Blanc'
p174
asS'Danablu'
p175
(lp176
S'Cabernet Sauvignon'
p177
asS'Munster'
p178
(lp179
S'Gewurztraminer'
p180
asS'Woodside Charleston'
p181
(lp182
S'Chardonnay'
p183
ag4
asS'Feta'
p184
(lp185
S'Pinot Blanc'
p186
aS'Pinot Noir'
p187
aS'Zinfandel'
p188
asS'Ricotta'
p189
(lp190
S'Sauvignon Blanc'
p191
asS'Mothais a la Feuille'
p192
(lp193
g4
asS'Tymsboro'
p194
(lp195
S'Sauvignon Blanc'
p196
asS'Mersey Valley Original Vintage'
p197
(lp198
S'Cabernet Sauvignon'
p199
aS'Port'
p200
aS'Chardonnay'
p201
asS'Four Herb Gouda'
p202
(lp203
S'Cabernet Sauvignon'
p204
asS'Tetilla'
p205
(lp206
S'Albarino'
p207
aS'Sherry'
p208
ag4
asS'Mozzarella'
p209
(lp210
S'Sangiovese'
p211
asS'Saint Maure'
p212
(lp213
S'Sauvignon Blanc'
p214
asS'Muenster'
p215
(lp216
g14
aS'Gruner Veltliner'
p217
ag7
asS'Nettle Meadow Kunik'
p218
(lp219
g4
asS'Abondance'
p220
(lp221
S'Malbec'
p222
aS'Cabernet Sauvignon'
p223
asS'Saint Agur'
p224
(lp225
S'Chardonnay'
p226
aS'Port'
p227
ag18
asS'Tourmalet'
p228
(lp229
S'Sauvignon Blanc'
p230
aS'Viognier'
p231
asS'Manur'
p232
(lp233
S'Merlot'
p234
aS'Zinfandel'
p235
asS'Mascarpone'
p236
(lp237
g48
asS'Brie'
p238
(lp239
S'Merlot'
p240
aS'Riesling'
p241
ag4
ag6
asS'Oltermanni'
p242
(lp243
S'Merlot'
p244
ag14
asS'Tillamook Cheddar'
p245
(lp246
S'Cabernet Sauvignon'
p247
aS'Sauvignon Blanc'
p248
ag18
asS'Taleggio'
p249
(lp250
S'Nebbiolo'
p251
asS'Saint Nectaire'
p252
(lp253
g32
ag18
ag54
asS'Blue cheese'
p254
(lp255
S'Port'
p256
aS'Riesling'
p257
aS'Zinfandel'
p258
ag48
ag217
asS'Ossau Fermier'
p259
(lp260
S'Zinfandel'
p261
ag18
asS'Ambert'
p262
(lp263
S'Pinot Noir'
p264
ag18
ag31
asS'Mimolette'
p265
(lp266
S'Merlot'
p267
aS'Sherry'
p268
aS'Grenache'
p269
asS'Boursin'
p270
(lp271
g7
asS'Ubriaco'
p272
(lp273
g4
asS'Tomme de Savoie'
p274
(lp275
S'Grenache'
p276
asS'Paneer'
p277
(lp278
S'Riesling'
p279
asS'Saint Felicien'
p280
(lp281
g84
ag31
asS'Monterey Jack'
p282
(lp283
S'Riesling'
p284
ag78
asS'Morbier'
p285
(lp286
S'Pinot Noir'
p287
aS'Gewurztraminer'
p288
asS'Fougerus'
p289
(lp290
S'Gewurztraminer'
p291
ag32
asS'Wensleydale'
p292
(lp293
g14
asS'Panela'
p294
(lp295
S'Chardonnay'
p296
aS'Riesling'
p297
asS'Neufchatel'
p298
(lp299
S'Sauvignon Blanc'
p300
asS'Etorki'
p301
(lp302
S'Chardonnay'
p303
ag68
asS'Derby'
p304
(lp305
S'Chenin Blanc'
p306
aS'Sauvignon Blanc'
p307
asS'Swiss'
p308
(lp309
S'Pinot Noir'
p310
ag7
asS'Scamorza'
p311
(lp312
S'Chardonnay'
p313
ag14
ag4
asS'White Stilton with Mango & Ginger'
p314
(lp315
S'Chenin Blanc'
p316
aS'Sauvignon Blanc'
p317
asS'Harbourne Blue'
p318
(lp319
S'Port'
p320
ag32
ag48
asS'Grano Padano'
p321
(lp322
S'Zinfandel'
p323
aS'Nebbiolo'
p324
ag4
asS'Graddost'
p325
(lp326
g5
asS'Cheddar'
p327
(lp328
S'Merlot'
p329
ag68
ag18
ag4
asS'Corleggy'
p330
(lp331
S'Pinot Noir'
p332
asS'Vacherin'
p333
(lp334
g95
ag4
ag54
asS'Shelburne Cheddar'
p335
(lp336
S'Grenache'
p337
as.