(dp0
S'Camembert'
p1
(lp2
S'Merlot'
p3
aS'White Wine'
p4
aS'Chenin Blanc'
p5
aS'Pinot Blanc'
p6
aS'Gewurztraminer'
p7
asS'Provolone'
p8
(lp9
S'Sangiovese'
p10
aS'Sauvignon Blanc'
p11
asS'Blue cheese'
p12
(lp13
S'Port'
p14
aS'Riesling'
p15
aS'Zinfandel'
p16
aS'Dessert'
p17
aS'Gruner Veltliner'
p18
asS'Colby'
p19
(lp20
S'Riesling'
p21
ag4
asS'Feta'
p22
(lp23
S'Pinot Blanc'
p24
aS'Pinot Noir'
p25
aS'Zinfandel'
p26
asS'Boursin'
p27
(lp28
g7
asS'Havarti'
p29
(lp30
S'Tempranillo'
p31
asS'Cream cheese'
p32
(lp33
g17
asS'Gruyere'
p34
(lp35
S'Pinot Noir'
p36
aS'Sauvignon Blanc'
p37
asS'Gorgonzola'
p38
(lp39
S'Merlot'
p40
aS'Port'
p41
asS'Beaufort'
p42
(lp43
g4
asS'Port-Salut'
p44
(lp45
S'Pinot Noir'
p46
asS'Mozarella'
p47
(lp48
S'Sangiovese'
p49
asS'Edam'
p50
(lp51
S'Riesling'
p52
aS'Pinot GrisGrigio'
p53
aS'SyrahShiraz'
p54
ag4
asS'Muenster'
p55
(lp56
g53
ag18
ag7
asS'Fontina'
p57
(lp58
S'Sangiovese'
p59
asS'Neufchatel'
p60
(lp61
S'Sauvignon Blanc'
p62
asS'Swiss'
p63
(lp64
S'Pinot Noir'
p65
ag7
asS'Gouda'
p66
(lp67
S'Merlot'
p68
aS'Riesling'
p69
aS'Zinfandel'
p70
ag53
ag54
asS'Graddost'
p71
(lp72
g5
asS'Cheddar'
p73
(lp74
S'Merlot'
p75
ag31
ag54
ag4
asS'Parmesan'
p76
(lp77
S'Sangiovese'
p78
ag54
aS'Sauvignon Blanc'
p79
asS'Chevre'
p80
(lp81
g7
asS'Mascarpone'
p82
(lp83
g17
asS'Brie'
p84
(lp85
S'Merlot'
p86
aS'Riesling'
p87
ag4
ag6
as.