(dp0
S'Camembert'
p1
(lp2
S'Merlot'
p3
aS'White Wine'
p4
aS'Pinot Blanc'
p5
aS'Chenin Blanc'
p6
aS'Gewurztraminer'
p7
asS'Provolone'
p8
(lp9
S'Sangiovese'
p10
aS'Sauvignon Blanc'
p11
aS'Sangiovese'
p12
asS'Blue cheese'
p13
(lp14
S'Port'
p15
aS'Riesling'
p16
aS'Zinfandel'
p17
aS'Gruner Veltliner'
p18
aS'Dessert'
p19
asS'Colby'
p20
(lp21
S'Riesling'
p22
ag4
asS'Feta'
p23
(lp24
S'Pinot Blanc'
p25
aS'Pinot Noir'
p26
aS'Zinfandel'
p27
asS'Boursin'
p28
(lp29
g7
asS'Havarti'
p30
(lp31
S'Tempranillo'
p32
asS'Cream cheese'
p33
(lp34
g19
asS'Gruyere'
p35
(lp36
S'Pinot Noir'
p37
aS'Sauvignon Blanc'
p38
asS'Gorgonzola'
p39
(lp40
S'Merlot'
p41
aS'Port'
p42
asS'Beaufort'
p43
(lp44
g4
asS'Port-Salut'
p45
(lp46
S'Pinot Noir'
p47
asS'Mozarella'
p48
(lp49
S'Sangiovese'
p50
ag12
asS'Edam'
p51
(lp52
S'Riesling'
p53
aS'Pinot GrisGrigio'
p54
aS'SyrahShiraz'
p55
ag4
asS'Muenster'
p56
(lp57
g54
ag18
ag7
asS'Fontina'
p58
(lp59
S'Sangiovese'
p60
ag12
asS'Neufchatel'
p61
(lp62
S'Sauvignon Blanc'
p63
asS'Swiss'
p64
(lp65
S'Pinot Noir'
p66
ag7
asS'Gouda'
p67
(lp68
S'Merlot'
p69
aS'Riesling'
p70
aS'Zinfandel'
p71
ag54
ag55
asS'Graddost'
p72
(lp73
g6
asS'Cheddar'
p74
(lp75
S'Merlot'
p76
ag32
ag55
ag4
asS'Parmesan'
p77
(lp78
S'Sangiovese'
p79
ag12
ag55
aS'Sauvignon Blanc'
p80
asS'Chevre'
p81
(lp82
g7
asS'Mascarpone'
p83
(lp84
g19
asS'Brie'
p85
(lp86
S'Merlot'
p87
aS'Riesling'
p88
ag4
ag5
as.